; Function Attrs: inlinehint mustprogress nounwind uwtable
define internal fastcc void @_ZSt8_DestroyIPN4absl12log_internal12_GLOBAL__N_111VModuleInfoEEvT_S5_(ptr noundef readonly captures(address) %0, ptr noundef readnone captures(address) %1) unnamed_addr #4 personality ptr @__gxx_personality_v0 {
  %.not4.i = icmp eq ptr %0, %1
  br i1 %.not4.i, label %_ZNSt12_Destroy_auxILb0EE9__destroyIPN4absl12log_internal12_GLOBAL__N_111VModuleInfoEEEvT_S7_.exit, label %.lr.ph.i

.lr.ph.i:                                         ; preds = %2, %_ZSt8_DestroyIN4absl12log_internal12_GLOBAL__N_111VModuleInfoEEvPT_.exit.i
  %.05.i = phi ptr [ %11, %_ZSt8_DestroyIN4absl12log_internal12_GLOBAL__N_111VModuleInfoEEvPT_.exit.i ], [ %0, %2 ]
  %3 = load ptr, ptr %.05.i, align 8, !tbaa !37
  %4 = getelementptr inbounds nuw i8, ptr %.05.i, i64 16
  %5 = icmp eq ptr %3, %4
  br i1 %5, label %_ZNKSt7__cxx1112basic_stringIcSt11char_traitsIcESaIcEE11_M_is_localEv.exit.thread.i.i.i.i.i, label %_ZNKSt7__cxx1112basic_stringIcSt11char_traitsIcESaIcEE11_M_is_localEv.exit.i.i.i.i.i

_ZNKSt7__cxx1112basic_stringIcSt11char_traitsIcESaIcEE11_M_is_localEv.exit.thread.i.i.i.i.i: ; preds = %.lr.ph.i
  %6 = getelementptr inbounds nuw i8, ptr %.05.i, i64 8
  %7 = load i64, ptr %6, align 8, !tbaa !38
  %8 = icmp ult i64 %7, 16
  tail call void @llvm.assume(i1 %8)
  br label %_ZSt8_DestroyIN4absl12log_internal12_GLOBAL__N_111VModuleInfoEEvPT_.exit.i

_ZNKSt7__cxx1112basic_stringIcSt11char_traitsIcESaIcEE11_M_is_localEv.exit.i.i.i.i.i: ; preds = %.lr.ph.i
  %9 = load i64, ptr %4, align 8, !tbaa !27
  %10 = add i64 %9, 1
  tail call void @_ZdlPvm(ptr noundef %3, i64 noundef %10) #26
  br label %_ZSt8_DestroyIN4absl12log_internal12_GLOBAL__N_111VModuleInfoEEvPT_.exit.i

_ZSt8_DestroyIN4absl12log_internal12_GLOBAL__N_111VModuleInfoEEvPT_.exit.i: ; preds = %_ZNKSt7__cxx1112basic_stringIcSt11char_traitsIcESaIcEE11_M_is_localEv.exit.i.i.i.i.i, %_ZNKSt7__cxx1112basic_stringIcSt11char_traitsIcESaIcEE11_M_is_localEv.exit.thread.i.i.i.i.i
  %11 = getelementptr inbounds nuw i8, ptr %.05.i, i64 40
  %.not.i = icmp eq ptr %11, %1
  br i1 %.not.i, label %_ZNSt12_Destroy_auxILb0EE9__destroyIPN4absl12log_internal12_GLOBAL__N_111VModuleInfoEEEvT_S7_.exit, label %.lr.ph.i, !llvm.loop !59

_ZNSt12_Destroy_auxILb0EE9__destroyIPN4absl12log_internal12_GLOBAL__N_111VModuleInfoEEEvT_S7_.exit: ; preds = %_ZSt8_DestroyIN4absl12log_internal12_GLOBAL__N_111VModuleInfoEEvPT_.exit.i, %2
  ret void
}